Certificate:
    Data:
        Version: 3 (0x2)
        Serial Number: 2 (0x2)
        Signature Algorithm: sha256WithRSAEncryption
        Issuer: C=US, ST=Florida, L=Palm Beach Gardens, O=ZeroC, Inc., OU=Ice, CN=ZeroC WSS Test CA/emailAddress=info@zeroc.com
        Validity
            Not Before: Feb 19 16:03:00 2014 GMT
            Not After : Feb 18 16:03:00 2019 GMT
        Subject: C=US, ST=Florida, O=ZeroC, Inc., OU=Ice/emailAddress=info@zeroc.com, CN=client
        Subject Public Key Info:
            Public Key Algorithm: rsaEncryption
            RSA Public Key: (1024 bit)
                Modulus (1024 bit):
                    00:e0:33:0e:b3:ce:f0:23:9c:dd:7f:a9:3d:9f:9d:
                    88:2a:1f:ee:42:67:a3:d1:93:74:04:75:bd:94:00:
                    cf:2e:3b:1c:4f:73:77:4e:67:e3:c7:19:fe:ec:c0:
                    48:3f:00:b2:8c:b7:98:86:4a:b2:98:28:58:3c:79:
                    d8:a1:34:fa:33:93:ef:9f:cc:7b:73:b1:fc:e2:1d:
                    ab:c7:2e:d3:91:60:05:ed:b8:f1:ad:12:01:24:5c:
                    9e:79:07:87:c7:36:45:2a:b8:ea:9c:b3:37:98:d5:
                    9e:dc:34:4d:e0:63:99:de:96:c0:9c:71:45:14:12:
                    43:ec:b5:71:6f:de:57:b5:e7
                Exponent: 65537 (0x10001)
        X509v3 extensions:
            X509v3 Basic Constraints: 
                CA:FALSE
            X509v3 Subject Key Identifier: 
                E6:58:E8:61:08:D3:74:7B:2E:E0:66:79:4D:AF:97:C5:EA:1A:2F:ED
            X509v3 Authority Key Identifier: 
                keyid:BA:9E:2E:49:B7:C4:ED:88:7E:8E:59:CE:B5:89:3F:6B:BA:41:93:A8
                DirName:/C=US/ST=Florida/L=Palm Beach Gardens/O=ZeroC, Inc./OU=Ice/CN=ZeroC WSS Test CA/emailAddress=info@zeroc.com
                serial:A0:06:BE:66:7E:E5:25:70

            X509v3 Subject Alternative Name: 
                DNS:127.0.0.1, IP Address:127.0.0.1
    Signature Algorithm: sha256WithRSAEncryption
        b1:9e:60:9f:9e:96:8a:8a:97:7b:98:e6:ac:17:15:a7:ac:7b:
        bb:ff:e6:0c:3b:2d:68:ae:58:2b:62:b8:ab:8b:e2:38:05:15:
        ba:d1:2b:39:8f:eb:2b:70:4b:c0:c1:d3:94:20:84:3d:fd:8e:
        c0:a0:d7:21:25:5e:99:2e:6e:5b:36:1a:c5:4d:b2:49:01:85:
        92:fd:51:74:6c:8f:47:8b:54:28:f2:76:2c:6f:cc:9e:63:13:
        05:14:0e:1d:d4:64:c1:a2:9f:18:80:16:e2:61:ef:10:3f:9f:
        ae:99:cc:0d:0a:1c:da:5d:74:19:32:8a:07:81:4c:7c:66:67:
        56:85
-----BEGIN CERTIFICATE-----
MIIDpDCCAw2gAwIBAgIBAjANBgkqhkiG9w0BAQsFADCBmzELMAkGA1UEBhMCVVMx
EDAOBgNVBAgTB0Zsb3JpZGExGzAZBgNVBAcTElBhbG0gQmVhY2ggR2FyZGVuczEU
MBIGA1UEChMLWmVyb0MsIEluYy4xDDAKBgNVBAsTA0ljZTEaMBgGA1UEAxMRWmVy
b0MgV1NTIFRlc3QgQ0ExHTAbBgkqhkiG9w0BCQEWDmluZm9AemVyb2MuY29tMB4X
DTE0MDIxOTE2MDMwMFoXDTE5MDIxODE2MDMwMFowczELMAkGA1UEBhMCVVMxEDAO
BgNVBAgTB0Zsb3JpZGExFDASBgNVBAoTC1plcm9DLCBJbmMuMQwwCgYDVQQLEwNJ
Y2UxHTAbBgkqhkiG9w0BCQEWDmluZm9AemVyb2MuY29tMQ8wDQYDVQQDEwZjbGll
bnQwgZ8wDQYJKoZIhvcNAQEBBQADgY0AMIGJAoGBAOAzDrPO8COc3X+pPZ+diCof
7kJno9GTdAR1vZQAzy47HE9zd05n48cZ/uzASD8Asoy3mIZKspgoWDx52KE0+jOT
75/Me3Ox/OIdq8cu05FgBe248a0SASRcnnkHh8c2RSq46pyzN5jVntw0TeBjmd6W
wJxxRRQSQ+y1cW/eV7XnAgMBAAGjggEdMIIBGTAJBgNVHRMEAjAAMB0GA1UdDgQW
BBTmWOhhCNN0ey7gZnlNr5fF6hov7TCB0AYDVR0jBIHIMIHFgBS6ni5Jt8TtiH6O
Wc61iT9rukGTqKGBoaSBnjCBmzELMAkGA1UEBhMCVVMxEDAOBgNVBAgTB0Zsb3Jp
ZGExGzAZBgNVBAcTElBhbG0gQmVhY2ggR2FyZGVuczEUMBIGA1UEChMLWmVyb0Ms
IEluYy4xDDAKBgNVBAsTA0ljZTEaMBgGA1UEAxMRWmVyb0MgV1NTIFRlc3QgQ0Ex
HTAbBgkqhkiG9w0BCQEWDmluZm9AemVyb2MuY29tggkAoAa+Zn7lJXAwGgYDVR0R
BBMwEYIJMTI3LjAuMC4xhwR/AAABMA0GCSqGSIb3DQEBCwUAA4GBALGeYJ+eloqK
l3uY5qwXFaese7v/5gw7LWiuWCtiuKuL4jgFFbrRKzmP6ytwS8DB05QghD39jsCg
1yElXpkubls2GsVNskkBhZL9UXRsj0eLVCjydixvzJ5jEwUUDh3UZMGinxiAFuJh
7xA/n66ZzA0KHNpddBkyigeBTHxmZ1aF
-----END CERTIFICATE-----
