Certificate:
    Data:
        Version: 3 (0x2)
        Serial Number: 1 (0x1)
        Signature Algorithm: sha256WithRSAEncryption
        Issuer: C=US, ST=Florida, L=Palm Beach Gardens, O=ZeroC, Inc., OU=Ice, CN=ZeroC WSS Test CA/emailAddress=info@zeroc.com
        Validity
            Not Before: Feb 19 16:03:00 2014 GMT
            Not After : Feb 18 16:03:00 2019 GMT
        Subject: C=US, ST=Florida, O=ZeroC, Inc., OU=Ice/emailAddress=info@zeroc.com, CN=127.0.0.1
        Subject Public Key Info:
            Public Key Algorithm: rsaEncryption
            RSA Public Key: (1024 bit)
                Modulus (1024 bit):
                    00:b8:65:a3:cd:62:c0:33:f3:81:1c:f3:16:16:82:
                    fc:30:db:63:e3:54:87:74:ff:e1:aa:f7:0d:e3:86:
                    b4:ec:15:89:79:c6:48:9c:b4:ed:36:a4:3c:60:45:
                    89:2e:f4:50:ab:a0:cf:a9:16:b5:e9:b1:d2:d7:55:
                    60:a9:c6:46:dc:95:48:1c:88:15:5f:dc:53:d5:bb:
                    13:cb:9d:c0:8c:6e:7a:58:49:18:82:af:b5:94:2c:
                    34:36:da:25:56:f2:f5:fa:8d:d2:b5:a6:f2:9f:ef:
                    3b:f3:96:62:4b:e8:c9:57:f0:e6:1a:59:28:90:6f:
                    56:0b:52:72:f6:65:44:af:15
                Exponent: 65537 (0x10001)
        X509v3 extensions:
            X509v3 Basic Constraints: 
                CA:FALSE
            X509v3 Subject Key Identifier: 
                EE:6D:15:63:E8:1E:95:93:9E:E0:80:8D:CF:26:56:36:61:16:7A:A5
            X509v3 Authority Key Identifier: 
                keyid:BA:9E:2E:49:B7:C4:ED:88:7E:8E:59:CE:B5:89:3F:6B:BA:41:93:A8
                DirName:/C=US/ST=Florida/L=Palm Beach Gardens/O=ZeroC, Inc./OU=Ice/CN=ZeroC WSS Test CA/emailAddress=info@zeroc.com
                serial:A0:06:BE:66:7E:E5:25:70

            X509v3 Subject Alternative Name: 
                DNS:127.0.0.1, IP Address:127.0.0.1
    Signature Algorithm: sha256WithRSAEncryption
        81:66:9b:8e:23:9b:e2:4b:36:5c:e2:c8:d4:52:67:4e:0f:6e:
        14:0a:81:4d:e4:50:2f:7e:27:69:aa:32:b0:98:dd:8c:8d:7f:
        59:67:46:b6:47:89:6b:31:3c:1c:ba:01:d3:24:a6:6d:64:c8:
        ea:67:1a:30:76:6d:ee:c2:9f:e3:57:ec:83:a1:37:c9:f5:39:
        a1:7a:f2:11:35:4c:8a:33:45:aa:d7:67:81:8d:be:65:ef:24:
        ed:46:44:92:3e:e4:52:62:0f:e9:a1:cd:40:56:98:1a:58:dc:
        d2:cc:57:a0:57:48:8e:af:25:ae:27:1a:6a:84:19:65:4f:c4:
        df:7a
-----BEGIN CERTIFICATE-----
MIIDpzCCAxCgAwIBAgIBATANBgkqhkiG9w0BAQsFADCBmzELMAkGA1UEBhMCVVMx
EDAOBgNVBAgTB0Zsb3JpZGExGzAZBgNVBAcTElBhbG0gQmVhY2ggR2FyZGVuczEU
MBIGA1UEChMLWmVyb0MsIEluYy4xDDAKBgNVBAsTA0ljZTEaMBgGA1UEAxMRWmVy
b0MgV1NTIFRlc3QgQ0ExHTAbBgkqhkiG9w0BCQEWDmluZm9AemVyb2MuY29tMB4X
DTE0MDIxOTE2MDMwMFoXDTE5MDIxODE2MDMwMFowdjELMAkGA1UEBhMCVVMxEDAO
BgNVBAgTB0Zsb3JpZGExFDASBgNVBAoTC1plcm9DLCBJbmMuMQwwCgYDVQQLEwNJ
Y2UxHTAbBgkqhkiG9w0BCQEWDmluZm9AemVyb2MuY29tMRIwEAYDVQQDEwkxMjcu
MC4wLjEwgZ8wDQYJKoZIhvcNAQEBBQADgY0AMIGJAoGBALhlo81iwDPzgRzzFhaC
/DDbY+NUh3T/4ar3DeOGtOwViXnGSJy07TakPGBFiS70UKugz6kWtemx0tdVYKnG
RtyVSByIFV/cU9W7E8udwIxuelhJGIKvtZQsNDbaJVby9fqN0rWm8p/vO/OWYkvo
yVfw5hpZKJBvVgtScvZlRK8VAgMBAAGjggEdMIIBGTAJBgNVHRMEAjAAMB0GA1Ud
DgQWBBTubRVj6B6Vk57ggI3PJlY2YRZ6pTCB0AYDVR0jBIHIMIHFgBS6ni5Jt8Tt
iH6OWc61iT9rukGTqKGBoaSBnjCBmzELMAkGA1UEBhMCVVMxEDAOBgNVBAgTB0Zs
b3JpZGExGzAZBgNVBAcTElBhbG0gQmVhY2ggR2FyZGVuczEUMBIGA1UEChMLWmVy
b0MsIEluYy4xDDAKBgNVBAsTA0ljZTEaMBgGA1UEAxMRWmVyb0MgV1NTIFRlc3Qg
Q0ExHTAbBgkqhkiG9w0BCQEWDmluZm9AemVyb2MuY29tggkAoAa+Zn7lJXAwGgYD
VR0RBBMwEYIJMTI3LjAuMC4xhwR/AAABMA0GCSqGSIb3DQEBCwUAA4GBAIFmm44j
m+JLNlziyNRSZ04PbhQKgU3kUC9+J2mqMrCY3YyNf1lnRrZHiWsxPBy6AdMkpm1k
yOpnGjB2be7Cn+NX7IOhN8n1OaF68hE1TIozRarXZ4GNvmXvJO1GRJI+5FJiD+mh
zUBWmBpY3NLMV6BXSI6vJa4nGmqEGWVPxN96
-----END CERTIFICATE-----
